target datalayout = "e-m:e-p270:32:32-p271:32:32-p272:64:64-i64:64-i128:128-f80:128-n8:16:32:64-S128"
target triple = "x86_64-pc-linux-gnu"

%struct.sockaddr_storage = type { i16, [118 x i8], i64 }

@.str.8 = private unnamed_addr constant [101 x i8] c"%s: all ephemeral ports, and the range (10001, 65536) are exhausted, cannot establish listening port\00", align 1
@__func__.slurm_init_msg_engine_port = private unnamed_addr constant [27 x i8] c"slurm_init_msg_engine_port\00", align 1

; Function Attrs: nounwind uwtable
define dso_local i32 @slurm_init_msg_engine_port(i16 noundef zeroext %0) #0 {
  %2 = alloca i16, align 2
  %3 = alloca i32, align 4
  %4 = alloca %struct.sockaddr_storage, align 8
  %5 = alloca i32, align 4
  store i16 %0, ptr %2, align 2
  call void @llvm.lifetime.start.p0(i64 4, ptr %3) #12
  call void @llvm.lifetime.start.p0(i64 128, ptr %4) #12
  call void @llvm.lifetime.start.p0(i64 4, ptr %5) #12
  %6 = load i16, ptr %2, align 2
  call void @slurm_setup_addr(ptr noundef %4, i16 noundef zeroext %6)
  %7 = load i16, ptr %2, align 2
  %8 = zext i16 %7 to i32
  %9 = icmp eq i32 %8, 0
  %10 = call i32 @slurm_init_msg_engine(ptr noundef %4, i1 noundef zeroext %9)
  store i32 %10, ptr %3, align 4
  %11 = load i32, ptr %3, align 4
  %12 = icmp slt i32 %11, 0
  br i1 %12, label %13, label %42

13:                                               ; preds = %1
  %14 = load i16, ptr %2, align 2
  %15 = zext i16 %14 to i32
  %16 = icmp eq i32 %15, 0
  br i1 %16, label %17, label %42

17:                                               ; preds = %13
  %18 = call ptr @__errno_location() #14
  %19 = load i32, ptr %18, align 4
  %20 = icmp eq i32 %19, 98
  br i1 %20, label %21, label %42

21:                                               ; preds = %17
  store i32 10001, ptr %5, align 4
  br label %22

22:                                               ; preds = %33, %21
  %23 = load i32, ptr %5, align 4
  %24 = icmp slt i32 %23, 65536
  br i1 %24, label %25, label %36

25:                                               ; preds = %22
  %26 = load i32, ptr %5, align 4
  %27 = trunc i32 %26 to i16
  call void @slurm_set_port(ptr noundef %4, i16 noundef zeroext %27)
  %28 = call i32 @slurm_init_msg_engine(ptr noundef %4, i1 noundef zeroext true)
  store i32 %28, ptr %3, align 4
  %29 = load i32, ptr %3, align 4
  %30 = icmp sge i32 %29, 0
  br i1 %30, label %31, label %32

31:                                               ; preds = %25
  br label %36

32:                                               ; preds = %25
  br label %33

33:                                               ; preds = %32
  %34 = load i32, ptr %5, align 4
  %35 = add nsw i32 %34, 1
  store i32 %35, ptr %5, align 4
  br label %22, !llvm.loop !19

36:                                               ; preds = %31, %22
  %37 = load i32, ptr %3, align 4
  %38 = icmp slt i32 %37, 0
  br i1 %38, label %39, label %41

39:                                               ; preds = %36
  %40 = call i32 (ptr, ...) @error(ptr noundef @.str.8, ptr noundef @__func__.slurm_init_msg_engine_port)
  br label %41

41:                                               ; preds = %39, %36
  br label %42

42:                                               ; preds = %41, %17, %13, %1
  %43 = load i32, ptr %3, align 4
  call void @llvm.lifetime.end.p0(i64 4, ptr %5) #12
  call void @llvm.lifetime.end.p0(i64 128, ptr %4) #12
  call void @llvm.lifetime.end.p0(i64 4, ptr %3) #12
  ret i32 %43
}