; Function Attrs: nounwind uwtable
define dso_local i32 @slurm_init_msg_engine_port(i16 noundef zeroext %0) local_unnamed_addr #1 {
  %2 = alloca %struct.sockaddr_storage, align 8
  call void @llvm.lifetime.start.p0(i64 128, ptr nonnull %2) #19
  call void @slurm_setup_addr(ptr noundef nonnull %2, i16 noundef zeroext %0)
  %3 = icmp eq i16 %0, 0
  %4 = call i32 @slurm_init_msg_engine(ptr noundef nonnull %2, i1 noundef zeroext %3) #19
  %5 = icmp slt i32 %4, 0
  %or.cond = and i1 %3, %5
  br i1 %or.cond, label %6, label %.loopexit

6:                                                ; preds = %1
  %7 = tail call ptr @__errno_location() #21
  %8 = load i32, ptr %7, align 4
  %9 = icmp eq i32 %8, 98
  br i1 %9, label %.preheader, label %.loopexit

10:                                               ; preds = %.preheader
  %11 = add nuw nsw i32 %.019, 1
  %exitcond.not = icmp eq i32 %11, 65536
  br i1 %exitcond.not, label %15, label %.preheader, !llvm.loop !19

.preheader:                                       ; preds = %6, %10
  %.019 = phi i32 [ %11, %10 ], [ 10001, %6 ]
  %12 = trunc nuw i32 %.019 to i16
  call void @slurm_set_port(ptr noundef nonnull %2, i16 noundef zeroext %12) #19
  %13 = call i32 @slurm_init_msg_engine(ptr noundef nonnull %2, i1 noundef zeroext true) #19
  %14 = icmp sgt i32 %13, -1
  br i1 %14, label %.loopexit, label %10

15:                                               ; preds = %10
  %16 = call i32 (ptr, ...) @error(ptr noundef nonnull @.str.8, ptr noundef nonnull @__func__.slurm_init_msg_engine_port) #19
  br label %.loopexit

.loopexit:                                        ; preds = %.preheader, %15, %6, %1
  %.012 = phi i32 [ %13, %15 ], [ %4, %6 ], [ %4, %1 ], [ %13, %.preheader ]
  call void @llvm.lifetime.end.p0(i64 128, ptr nonnull %2) #19
  ret i32 %.012
}